target datalayout = "e-m:e-p270:32:32-p271:32:32-p272:64:64-i64:64-i128:128-f80:128-n8:16:32:64-S128"
target triple = "x86_64-pc-linux-gnu"

%struct.ImRect = type { %struct.ImVec2, %struct.ImVec2 }
%struct.ImVec2 = type { float, float }
%struct.ImGuiTextBuffer = type { %struct.ImVector.28 }
%struct.ImVector.28 = type { i32, i32, ptr }
%struct.ImGuiTableInstanceData = type { i32, float, float, float, i32, i32 }
%struct.ImGuiTableColumn = type <{ i32, float, float, float, float, float, float, float, float, %struct.ImRect, i32, float, float, float, float, float, float, float, i16, i16, i16, i16, i16, i16, i16, i16, i16, i8, i8, i8, i8, i8, i8, i8, i8, i8, i8, i8, i8, i8, i8 }>
%struct.ImGuiTable = type <{ i32, i32, ptr, ptr, %struct.ImSpan, %struct.ImSpan.41, %struct.ImSpan.42, ptr, ptr, ptr, i32, i32, i32, i32, i32, i32, i16, i16, float, float, float, float, float, float, i32, i32, [2 x i32], i32, i32, float, float, float, float, float, float, float, float, float, float, float, float, float, float, float, float, float, %struct.ImRect, %struct.ImRect, %struct.ImRect, %struct.ImRect, %struct.ImRect, %struct.ImRect, %struct.ImRect, %struct.ImRect, %struct.ImRect, ptr, ptr, %struct.ImGuiTextBuffer, ptr, %struct.ImGuiTableInstanceData, %struct.ImVector.43, %struct.ImGuiTableColumnSortSpecs, [4 x i8], %struct.ImVector.44, %struct.ImGuiTableSortSpecs, i16, i16, i16, i16, i16, i16, i16, i16, i16, i16, i16, i16, i16, i16, i16, i16, i16, i16, i16, i16, i16, i16, i16, i16, i16, i16, i16, i8, i8, i8, i8, i8, i8, i8, i8, i8, i8, i8, i8, i8, i8, i8, i8, i8, i8, i8, i8, i8, [5 x i8] }>
%struct.ImSpan = type { ptr, ptr }
%struct.ImSpan.41 = type { ptr, ptr }
%struct.ImSpan.42 = type { ptr, ptr }
%struct.ImVector.43 = type { i32, i32, ptr }
%struct.ImGuiTableColumnSortSpecs = type <{ i32, i16, i16, i8, [3 x i8] }>
%struct.ImVector.44 = type { i32, i32, ptr }
%struct.ImGuiTableSortSpecs = type <{ ptr, i32, i8, [3 x i8] }>

; Function Attrs: inlinehint mustprogress uwtable
define linkonce_odr void @_ZN8ImVectorI25ImGuiTableColumnSortSpecsE7reserveEi(ptr noundef nonnull align 8 dereferenceable(16) %0, i32 noundef %1) #9 comdat align 2 {
  %3 = alloca ptr, align 8
  %4 = alloca i32, align 4
  %5 = alloca ptr, align 8
  store ptr %0, ptr %3, align 8, !tbaa !610
  store i32 %1, ptr %4, align 4, !tbaa !3
  %6 = load ptr, ptr %3, align 8
  %7 = load i32, ptr %4, align 4, !tbaa !3
  %8 = getelementptr inbounds nuw %struct.ImVector.44, ptr %6, i32 0, i32 1
  %9 = load i32, ptr %8, align 4, !tbaa !612
  %10 = icmp sle i32 %7, %9
  br i1 %10, label %11, label %12

11:                                               ; preds = %2
  br label %35

12:                                               ; preds = %2
  call void @llvm.lifetime.start.p0(i64 8, ptr %5) #8
  %13 = load i32, ptr %4, align 4, !tbaa !3
  %14 = sext i32 %13 to i64
  %15 = mul i64 %14, 12
  %16 = call noundef ptr @_ZN5ImGui8MemAllocEm(i64 noundef %15)
  store ptr %16, ptr %5, align 8, !tbaa !487
  %17 = getelementptr inbounds nuw %struct.ImVector.44, ptr %6, i32 0, i32 2
  %18 = load ptr, ptr %17, align 8, !tbaa !674
  %19 = icmp ne ptr %18, null
  br i1 %19, label %20, label %30

20:                                               ; preds = %12
  %21 = load ptr, ptr %5, align 8, !tbaa !487
  %22 = getelementptr inbounds nuw %struct.ImVector.44, ptr %6, i32 0, i32 2
  %23 = load ptr, ptr %22, align 8, !tbaa !674
  %24 = getelementptr inbounds nuw %struct.ImVector.44, ptr %6, i32 0, i32 0
  %25 = load i32, ptr %24, align 8, !tbaa !613
  %26 = sext i32 %25 to i64
  %27 = mul i64 %26, 12
  call void @llvm.memcpy.p0.p0.i64(ptr align 4 %21, ptr align 4 %23, i64 %27, i1 false)
  %28 = getelementptr inbounds nuw %struct.ImVector.44, ptr %6, i32 0, i32 2
  %29 = load ptr, ptr %28, align 8, !tbaa !674
  call void @_ZN5ImGui7MemFreeEPv(ptr noundef %29)
  br label %30

30:                                               ; preds = %20, %12
  %31 = load ptr, ptr %5, align 8, !tbaa !487
  %32 = getelementptr inbounds nuw %struct.ImVector.44, ptr %6, i32 0, i32 2
  store ptr %31, ptr %32, align 8, !tbaa !674
  %33 = load i32, ptr %4, align 4, !tbaa !3
  %34 = getelementptr inbounds nuw %struct.ImVector.44, ptr %6, i32 0, i32 1
  store i32 %33, ptr %34, align 4, !tbaa !612
  call void @llvm.lifetime.end.p0(i64 8, ptr %5) #8
  br label %35

35:                                               ; preds = %30, %11
  ret void
}

; Function Attrs: inlinehint mustprogress nounwind uwtable
define linkonce_odr noundef i32 @_ZNK8ImVectorI25ImGuiTableColumnSortSpecsE14_grow_capacityEi(ptr noundef nonnull align 8 dereferenceable(16) %0, i32 noundef %1) #4 comdat align 2 {
  %3 = alloca ptr, align 8
  %4 = alloca i32, align 4
  %5 = alloca i32, align 4
  store ptr %0, ptr %3, align 8, !tbaa !610
  store i32 %1, ptr %4, align 4, !tbaa !3
  %6 = load ptr, ptr %3, align 8
  call void @llvm.lifetime.start.p0(i64 4, ptr %5) #8
  %7 = getelementptr inbounds nuw %struct.ImVector.44, ptr %6, i32 0, i32 1
  %8 = load i32, ptr %7, align 4, !tbaa !612
  %9 = icmp ne i32 %8, 0
  br i1 %9, label %10, label %17

10:                                               ; preds = %2
  %11 = getelementptr inbounds nuw %struct.ImVector.44, ptr %6, i32 0, i32 1
  %12 = load i32, ptr %11, align 4, !tbaa !612
  %13 = getelementptr inbounds nuw %struct.ImVector.44, ptr %6, i32 0, i32 1
  %14 = load i32, ptr %13, align 4, !tbaa !612
  %15 = sdiv i32 %14, 2
  %16 = add nsw i32 %12, %15
  br label %18

17:                                               ; preds = %2
  br label %18

18:                                               ; preds = %17, %10
  %19 = phi i32 [ %16, %10 ], [ 8, %17 ]
  store i32 %19, ptr %5, align 4, !tbaa !3
  %20 = load i32, ptr %5, align 4, !tbaa !3
  %21 = load i32, ptr %4, align 4, !tbaa !3
  %22 = icmp sgt i32 %20, %21
  br i1 %22, label %23, label %25

23:                                               ; preds = %18
  %24 = load i32, ptr %5, align 4, !tbaa !3
  br label %27

25:                                               ; preds = %18
  %26 = load i32, ptr %4, align 4, !tbaa !3
  br label %27

27:                                               ; preds = %25, %23
  %28 = phi i32 [ %24, %23 ], [ %26, %25 ]
  call void @llvm.lifetime.end.p0(i64 4, ptr %5) #8
  ret i32 %28
}

; Function Attrs: inlinehint mustprogress nounwind uwtable
define linkonce_odr noundef nonnull align 4 dereferenceable(115) ptr @_ZN6ImSpanI16ImGuiTableColumnEixEi(ptr noundef nonnull align 8 dereferenceable(16) %0, i32 noundef %1) #4 comdat align 2 {
  %3 = alloca ptr, align 8
  %4 = alloca i32, align 4
  %5 = alloca ptr, align 8
  store ptr %0, ptr %3, align 8, !tbaa !345
  store i32 %1, ptr %4, align 4, !tbaa !3
  %6 = load ptr, ptr %3, align 8
  call void @llvm.lifetime.start.p0(i64 8, ptr %5) #8
  %7 = getelementptr inbounds nuw %struct.ImSpan, ptr %6, i32 0, i32 0
  %8 = load ptr, ptr %7, align 8, !tbaa !348
  %9 = load i32, ptr %4, align 4, !tbaa !3
  %10 = sext i32 %9 to i64
  %11 = getelementptr inbounds %struct.ImGuiTableColumn, ptr %8, i64 %10
  store ptr %11, ptr %5, align 8, !tbaa !265
  %12 = load ptr, ptr %5, align 8, !tbaa !265
  call void @llvm.lifetime.end.p0(i64 8, ptr %5) #8
  ret ptr %12
}

; Function Attrs: inlinehint mustprogress uwtable
define linkonce_odr void @_ZN8ImVectorI25ImGuiTableColumnSortSpecsE6resizeEi(ptr noundef nonnull align 8 dereferenceable(16) %0, i32 noundef %1) #9 comdat align 2 {
  %3 = alloca ptr, align 8
  %4 = alloca i32, align 4
  store ptr %0, ptr %3, align 8, !tbaa !610
  store i32 %1, ptr %4, align 4, !tbaa !3
  %5 = load ptr, ptr %3, align 8
  %6 = load i32, ptr %4, align 4, !tbaa !3
  %7 = getelementptr inbounds nuw %struct.ImVector.44, ptr %5, i32 0, i32 1
  %8 = load i32, ptr %7, align 4, !tbaa !612
  %9 = icmp sgt i32 %6, %8
  br i1 %9, label %10, label %13

10:                                               ; preds = %2
  %11 = load i32, ptr %4, align 4, !tbaa !3
  %12 = call noundef i32 @_ZNK8ImVectorI25ImGuiTableColumnSortSpecsE14_grow_capacityEi(ptr noundef nonnull align 8 dereferenceable(16) %5, i32 noundef %11)
  call void @_ZN8ImVectorI25ImGuiTableColumnSortSpecsE7reserveEi(ptr noundef nonnull align 8 dereferenceable(16) %5, i32 noundef %12)
  br label %13

13:                                               ; preds = %10, %2
  %14 = load i32, ptr %4, align 4, !tbaa !3
  %15 = getelementptr inbounds nuw %struct.ImVector.44, ptr %5, i32 0, i32 0
  store i32 %14, ptr %15, align 8, !tbaa !613
  ret void
}

; Function Attrs: mustprogress uwtable
define void @_ZN5ImGui19TableSortSpecsBuildEP10ImGuiTable(ptr noundef %0) #0 {
  %2 = alloca ptr, align 8
  %3 = alloca i8, align 1
  %4 = alloca ptr, align 8
  %5 = alloca i32, align 4
  %6 = alloca i32, align 4
  %7 = alloca ptr, align 8
  %8 = alloca ptr, align 8
  store ptr %0, ptr %2, align 8, !tbaa !167
  call void @llvm.lifetime.start.p0(i64 1, ptr %3) #8
  %9 = load ptr, ptr %2, align 8, !tbaa !167
  %10 = getelementptr inbounds nuw %struct.ImGuiTable, ptr %9, i32 0, i32 96
  %11 = load i8, ptr %10, align 2, !tbaa !273, !range !67, !noundef !68
  %12 = trunc i8 %11 to i1
  %13 = zext i1 %12 to i8
  store i8 %13, ptr %3, align 1, !tbaa !69
  %14 = load i8, ptr %3, align 1, !tbaa !69, !range !67, !noundef !68
  %15 = trunc i8 %14 to i1
  br i1 %15, label %16, label %38

16:                                               ; preds = %1
  %17 = load ptr, ptr %2, align 8, !tbaa !167
  call void @_ZN5ImGui22TableSortSpecsSanitizeEP10ImGuiTable(ptr noundef %17)
  %18 = load ptr, ptr %2, align 8, !tbaa !167
  %19 = getelementptr inbounds nuw %struct.ImGuiTable, ptr %18, i32 0, i32 63
  %20 = load ptr, ptr %2, align 8, !tbaa !167
  %21 = getelementptr inbounds nuw %struct.ImGuiTable, ptr %20, i32 0, i32 65
  %22 = load i16, ptr %21, align 8, !tbaa !419
  %23 = sext i16 %22 to i32
  %24 = icmp sle i32 %23, 1
  br i1 %24, label %25, label %26

25:                                               ; preds = %16
  br label %31

26:                                               ; preds = %16
  %27 = load ptr, ptr %2, align 8, !tbaa !167
  %28 = getelementptr inbounds nuw %struct.ImGuiTable, ptr %27, i32 0, i32 65
  %29 = load i16, ptr %28, align 8, !tbaa !419
  %30 = sext i16 %29 to i32
  br label %31

31:                                               ; preds = %26, %25
  %32 = phi i32 [ 0, %25 ], [ %30, %26 ]
  call void @_ZN8ImVectorI25ImGuiTableColumnSortSpecsE6resizeEi(ptr noundef nonnull align 8 dereferenceable(16) %19, i32 noundef %32)
  %33 = load ptr, ptr %2, align 8, !tbaa !167
  %34 = getelementptr inbounds nuw %struct.ImGuiTable, ptr %33, i32 0, i32 64
  %35 = getelementptr inbounds nuw %struct.ImGuiTableSortSpecs, ptr %34, i32 0, i32 2
  store i8 1, ptr %35, align 4, !tbaa !485
  %36 = load ptr, ptr %2, align 8, !tbaa !167
  %37 = getelementptr inbounds nuw %struct.ImGuiTable, ptr %36, i32 0, i32 96
  store i8 0, ptr %37, align 2, !tbaa !273
  br label %38

38:                                               ; preds = %31, %1
  call void @llvm.lifetime.start.p0(i64 8, ptr %4) #8
  %39 = load ptr, ptr %2, align 8, !tbaa !167
  %40 = getelementptr inbounds nuw %struct.ImGuiTable, ptr %39, i32 0, i32 65
  %41 = load i16, ptr %40, align 8, !tbaa !419
  %42 = sext i16 %41 to i32
  %43 = icmp eq i32 %42, 0
  br i1 %43, label %44, label %45

44:                                               ; preds = %38
  br label %61

45:                                               ; preds = %38
  %46 = load ptr, ptr %2, align 8, !tbaa !167
  %47 = getelementptr inbounds nuw %struct.ImGuiTable, ptr %46, i32 0, i32 65
  %48 = load i16, ptr %47, align 8, !tbaa !419
  %49 = sext i16 %48 to i32
  %50 = icmp eq i32 %49, 1
  br i1 %50, label %51, label %54

51:                                               ; preds = %45
  %52 = load ptr, ptr %2, align 8, !tbaa !167
  %53 = getelementptr inbounds nuw %struct.ImGuiTable, ptr %52, i32 0, i32 61
  br label %59

54:                                               ; preds = %45
  %55 = load ptr, ptr %2, align 8, !tbaa !167
  %56 = getelementptr inbounds nuw %struct.ImGuiTable, ptr %55, i32 0, i32 63
  %57 = getelementptr inbounds nuw %struct.ImVector.44, ptr %56, i32 0, i32 2
  %58 = load ptr, ptr %57, align 8, !tbaa !486
  br label %59

59:                                               ; preds = %54, %51
  %60 = phi ptr [ %53, %51 ], [ %58, %54 ]
  br label %61

61:                                               ; preds = %59, %44
  %62 = phi ptr [ null, %44 ], [ %60, %59 ]
  store ptr %62, ptr %4, align 8, !tbaa !487
  %63 = load i8, ptr %3, align 1, !tbaa !69, !range !67, !noundef !68
  %64 = trunc i8 %63 to i1
  br i1 %64, label %65, label %121

65:                                               ; preds = %61
  %66 = load ptr, ptr %4, align 8, !tbaa !487
  %67 = icmp ne ptr %66, null
  br i1 %67, label %68, label %121

68:                                               ; preds = %65
  call void @llvm.lifetime.start.p0(i64 4, ptr %5) #8
  store i32 0, ptr %5, align 4, !tbaa !3
  br label %69

69:                                               ; preds = %117, %68
  %70 = load i32, ptr %5, align 4, !tbaa !3
  %71 = load ptr, ptr %2, align 8, !tbaa !167
  %72 = getelementptr inbounds nuw %struct.ImGuiTable, ptr %71, i32 0, i32 13
  %73 = load i32, ptr %72, align 4, !tbaa !200
  %74 = icmp slt i32 %70, %73
  br i1 %74, label %76, label %75

75:                                               ; preds = %69
  store i32 2, ptr %6, align 4
  call void @llvm.lifetime.end.p0(i64 4, ptr %5) #8
  br label %120

76:                                               ; preds = %69
  call void @llvm.lifetime.start.p0(i64 8, ptr %7) #8
  %77 = load ptr, ptr %2, align 8, !tbaa !167
  %78 = getelementptr inbounds nuw %struct.ImGuiTable, ptr %77, i32 0, i32 4
  %79 = load i32, ptr %5, align 4, !tbaa !3
  %80 = call noundef nonnull align 4 dereferenceable(115) ptr @_ZN6ImSpanI16ImGuiTableColumnEixEi(ptr noundef nonnull align 8 dereferenceable(16) %78, i32 noundef %79)
  store ptr %80, ptr %7, align 8, !tbaa !265
  %81 = load ptr, ptr %7, align 8, !tbaa !265
  %82 = getelementptr inbounds nuw %struct.ImGuiTableColumn, ptr %81, i32 0, i32 23
  %83 = load i16, ptr %82, align 2, !tbaa !359
  %84 = sext i16 %83 to i32
  %85 = icmp eq i32 %84, -1
  br i1 %85, label %86, label %87

86:                                               ; preds = %76
  store i32 4, ptr %6, align 4
  br label %114

87:                                               ; preds = %76
  call void @llvm.lifetime.start.p0(i64 8, ptr %8) #8
  %88 = load ptr, ptr %4, align 8, !tbaa !487
  %89 = load ptr, ptr %7, align 8, !tbaa !265
  %90 = getelementptr inbounds nuw %struct.ImGuiTableColumn, ptr %89, i32 0, i32 23
  %91 = load i16, ptr %90, align 2, !tbaa !359
  %92 = sext i16 %91 to i64
  %93 = getelementptr inbounds %struct.ImGuiTableColumnSortSpecs, ptr %88, i64 %92
  store ptr %93, ptr %8, align 8, !tbaa !487
  %94 = load ptr, ptr %7, align 8, !tbaa !265
  %95 = getelementptr inbounds nuw %struct.ImGuiTableColumn, ptr %94, i32 0, i32 10
  %96 = load i32, ptr %95, align 4, !tbaa !415
  %97 = load ptr, ptr %8, align 8, !tbaa !487
  %98 = getelementptr inbounds nuw %struct.ImGuiTableColumnSortSpecs, ptr %97, i32 0, i32 0
  store i32 %96, ptr %98, align 4, !tbaa !488
  %99 = load i32, ptr %5, align 4, !tbaa !3
  %100 = trunc i32 %99 to i16
  %101 = load ptr, ptr %8, align 8, !tbaa !487
  %102 = getelementptr inbounds nuw %struct.ImGuiTableColumnSortSpecs, ptr %101, i32 0, i32 1
  store i16 %100, ptr %102, align 4, !tbaa !489
  %103 = load ptr, ptr %7, align 8, !tbaa !265
  %104 = getelementptr inbounds nuw %struct.ImGuiTableColumn, ptr %103, i32 0, i32 23
  %105 = load i16, ptr %104, align 2, !tbaa !359
  %106 = load ptr, ptr %8, align 8, !tbaa !487
  %107 = getelementptr inbounds nuw %struct.ImGuiTableColumnSortSpecs, ptr %106, i32 0, i32 2
  store i16 %105, ptr %107, align 2, !tbaa !490
  %108 = load ptr, ptr %7, align 8, !tbaa !265
  %109 = getelementptr inbounds nuw %struct.ImGuiTableColumn, ptr %108, i32 0, i32 38
  %110 = load i8, ptr %109, align 1
  %111 = and i8 %110, 3
  %112 = load ptr, ptr %8, align 8, !tbaa !487
  %113 = getelementptr inbounds nuw %struct.ImGuiTableColumnSortSpecs, ptr %112, i32 0, i32 3
  store i8 %111, ptr %113, align 4, !tbaa !491
  call void @llvm.lifetime.end.p0(i64 8, ptr %8) #8
  store i32 0, ptr %6, align 4
  br label %114

114:                                              ; preds = %87, %86
  call void @llvm.lifetime.end.p0(i64 8, ptr %7) #8
  %115 = load i32, ptr %6, align 4
  switch i32 %115, label %133 [
    i32 0, label %116
    i32 4, label %117
  ]

116:                                              ; preds = %114
  br label %117

117:                                              ; preds = %116, %114
  %118 = load i32, ptr %5, align 4, !tbaa !3
  %119 = add nsw i32 %118, 1
  store i32 %119, ptr %5, align 4, !tbaa !3
  br label %69, !llvm.loop !492

120:                                              ; preds = %75
  br label %121

121:                                              ; preds = %120, %65, %61
  %122 = load ptr, ptr %4, align 8, !tbaa !487
  %123 = load ptr, ptr %2, align 8, !tbaa !167
  %124 = getelementptr inbounds nuw %struct.ImGuiTable, ptr %123, i32 0, i32 64
  %125 = getelementptr inbounds nuw %struct.ImGuiTableSortSpecs, ptr %124, i32 0, i32 0
  store ptr %122, ptr %125, align 8, !tbaa !493
  %126 = load ptr, ptr %2, align 8, !tbaa !167
  %127 = getelementptr inbounds nuw %struct.ImGuiTable, ptr %126, i32 0, i32 65
  %128 = load i16, ptr %127, align 8, !tbaa !419
  %129 = sext i16 %128 to i32
  %130 = load ptr, ptr %2, align 8, !tbaa !167
  %131 = getelementptr inbounds nuw %struct.ImGuiTable, ptr %130, i32 0, i32 64
  %132 = getelementptr inbounds nuw %struct.ImGuiTableSortSpecs, ptr %131, i32 0, i32 1
  store i32 %129, ptr %132, align 8, !tbaa !494
  call void @llvm.lifetime.end.p0(i64 8, ptr %4) #8
  call void @llvm.lifetime.end.p0(i64 1, ptr %3) #8
  ret void

133:                                              ; preds = %114
  unreachable
}