; Function Attrs: mustprogress uwtable
define void @_ZN5ImGui19TableSortSpecsBuildEP10ImGuiTable(ptr noundef %0) local_unnamed_addr #0 {
  %2 = getelementptr inbounds nuw i8, ptr %0, i64 570
  %3 = load i8, ptr %2, align 2, !tbaa !295, !range !153, !noundef !154
  %4 = trunc nuw i8 %3 to i1
  br i1 %4, label %5, label %31

5:                                                ; preds = %1
  tail call void @_ZN5ImGui22TableSortSpecsSanitizeEP10ImGuiTable(ptr noundef nonnull %0)
  %6 = getelementptr inbounds nuw i8, ptr %0, i64 480
  %7 = getelementptr inbounds nuw i8, ptr %0, i64 512
  %8 = load i16, ptr %7, align 8, !tbaa !380
  %9 = icmp slt i16 %8, 2
  %narrow = select i1 %9, i16 0, i16 %8
  %spec.select = sext i16 %narrow to i32
  %10 = getelementptr inbounds nuw i8, ptr %0, i64 484
  %11 = load i32, ptr %10, align 4, !tbaa !453
  %12 = icmp slt i32 %11, %spec.select
  br i1 %12, label %13, label %_ZN8ImVectorI25ImGuiTableColumnSortSpecsE6resizeEi.exit

13:                                               ; preds = %5
  %.not.i.i = icmp eq i32 %11, 0
  br i1 %.not.i.i, label %_ZNK8ImVectorI25ImGuiTableColumnSortSpecsE14_grow_capacityEi.exit.i, label %14

14:                                               ; preds = %13
  %15 = sdiv i32 %11, 2
  %16 = add nsw i32 %15, %11
  br label %_ZNK8ImVectorI25ImGuiTableColumnSortSpecsE14_grow_capacityEi.exit.i

_ZNK8ImVectorI25ImGuiTableColumnSortSpecsE14_grow_capacityEi.exit.i: ; preds = %14, %13
  %17 = phi i32 [ %16, %14 ], [ 8, %13 ]
  %18 = tail call noundef i32 @llvm.smax.i32(i32 %17, i32 %spec.select)
  %19 = sext i32 %18 to i64
  %20 = mul nsw i64 %19, 12
  %21 = tail call noundef ptr @_ZN5ImGui8MemAllocEm(i64 noundef %20)
  %22 = getelementptr inbounds nuw i8, ptr %0, i64 488
  %23 = load ptr, ptr %22, align 8, !tbaa !454
  %.not6.i.i = icmp eq ptr %23, null
  br i1 %.not6.i.i, label %29, label %24

24:                                               ; preds = %_ZNK8ImVectorI25ImGuiTableColumnSortSpecsE14_grow_capacityEi.exit.i
  %25 = load i32, ptr %6, align 8, !tbaa !455
  %26 = sext i32 %25 to i64
  %27 = mul nsw i64 %26, 12
  tail call void @llvm.memcpy.p0.p0.i64(ptr align 4 %21, ptr nonnull align 4 %23, i64 %27, i1 false)
  %28 = load ptr, ptr %22, align 8, !tbaa !454
  tail call void @_ZN5ImGui7MemFreeEPv(ptr noundef %28)
  br label %29

29:                                               ; preds = %24, %_ZNK8ImVectorI25ImGuiTableColumnSortSpecsE14_grow_capacityEi.exit.i
  store ptr %21, ptr %22, align 8, !tbaa !454
  store i32 %18, ptr %10, align 4, !tbaa !453
  br label %_ZN8ImVectorI25ImGuiTableColumnSortSpecsE6resizeEi.exit

_ZN8ImVectorI25ImGuiTableColumnSortSpecsE6resizeEi.exit: ; preds = %5, %29
  store i32 %spec.select, ptr %6, align 8, !tbaa !455
  %30 = getelementptr inbounds nuw i8, ptr %0, i64 508
  store i8 1, ptr %30, align 4, !tbaa !456
  store i8 0, ptr %2, align 2, !tbaa !295
  br label %31

31:                                               ; preds = %_ZN8ImVectorI25ImGuiTableColumnSortSpecsE6resizeEi.exit, %1
  %32 = getelementptr inbounds nuw i8, ptr %0, i64 512
  %33 = load i16, ptr %32, align 8, !tbaa !380
  switch i16 %33, label %36 [
    i16 0, label %.thread
    i16 1, label %34
  ]

34:                                               ; preds = %31
  %35 = getelementptr inbounds nuw i8, ptr %0, i64 464
  br label %39

36:                                               ; preds = %31
  %37 = getelementptr inbounds nuw i8, ptr %0, i64 488
  %38 = load ptr, ptr %37, align 8, !tbaa !457
  br label %39

39:                                               ; preds = %34, %36
  %40 = phi ptr [ %35, %34 ], [ %38, %36 ]
  %41 = icmp ne ptr %40, null
  %or.cond = select i1 %4, i1 %41, i1 false
  br i1 %or.cond, label %.preheader, label %.thread

.preheader:                                       ; preds = %39
  %42 = getelementptr inbounds nuw i8, ptr %0, i64 108
  %43 = load i32, ptr %42, align 4, !tbaa !209
  %44 = icmp sgt i32 %43, 0
  br i1 %44, label %.lr.ph, label %.thread

.lr.ph:                                           ; preds = %.preheader
  %45 = getelementptr inbounds nuw i8, ptr %0, i64 24
  %46 = load ptr, ptr %45, align 8, !tbaa !278
  %wide.trip.count = zext nneg i32 %43 to i64
  br label %47

47:                                               ; preds = %.lr.ph, %64
  %indvars.iv = phi i64 [ 0, %.lr.ph ], [ %indvars.iv.next, %64 ]
  %48 = getelementptr inbounds nuw %struct.ImGuiTableColumn, ptr %46, i64 %indvars.iv
  %49 = getelementptr inbounds nuw i8, ptr %48, i64 94
  %50 = load i16, ptr %49, align 2, !tbaa !342
  %51 = icmp eq i16 %50, -1
  br i1 %51, label %64, label %52

52:                                               ; preds = %47
  %53 = sext i16 %50 to i64
  %54 = getelementptr inbounds %struct.ImGuiTableColumnSortSpecs, ptr %40, i64 %53
  %55 = getelementptr inbounds nuw i8, ptr %48, i64 52
  %56 = load i32, ptr %55, align 4, !tbaa !372
  store i32 %56, ptr %54, align 4, !tbaa !458
  %57 = trunc i64 %indvars.iv to i16
  %58 = getelementptr inbounds nuw i8, ptr %54, i64 4
  store i16 %57, ptr %58, align 4, !tbaa !459
  %59 = getelementptr inbounds nuw i8, ptr %54, i64 6
  store i16 %50, ptr %59, align 2, !tbaa !460
  %60 = getelementptr inbounds nuw i8, ptr %48, i64 113
  %61 = load i8, ptr %60, align 1
  %62 = and i8 %61, 3
  %63 = getelementptr inbounds nuw i8, ptr %54, i64 8
  store i8 %62, ptr %63, align 4, !tbaa !461
  br label %64

64:                                               ; preds = %47, %52
  %indvars.iv.next = add nuw nsw i64 %indvars.iv, 1
  %exitcond.not = icmp eq i64 %indvars.iv.next, %wide.trip.count
  br i1 %exitcond.not, label %.thread, label %47, !llvm.loop !462

.thread:                                          ; preds = %64, %.preheader, %31, %39
  %65 = phi ptr [ %40, %39 ], [ null, %31 ], [ %40, %.preheader ], [ %40, %64 ]
  %66 = getelementptr inbounds nuw i8, ptr %0, i64 496
  store ptr %65, ptr %66, align 8, !tbaa !463
  %67 = sext i16 %33 to i32
  %68 = getelementptr inbounds nuw i8, ptr %0, i64 504
  store i32 %67, ptr %68, align 8, !tbaa !464
  ret void
}